target datalayout = "e-m:e-p270:32:32-p271:32:32-p272:64:64-i64:64-i128:128-f80:128-n8:16:32:64-S128"
target triple = "x86_64-pc-linux-gnu"

%struct.ident_t = type { i32, i32, i32, i32, ptr }

@_ZTISt13runtime_error = external constant ptr
@.str.7 = private unnamed_addr constant [123 x i8] c"Syntax: rgb2spec_opt <resolution> <output> [<gamut>]\0Awhere <gamut> is one of sRGB,eRGB,XYZ,ProPhotoRGB,ACES2065_1,REC2020\0A\00", align 1
@stderr = external global ptr, align 8
@.str.8 = private unnamed_addr constant [29 x i8] c"Could not parse gamut `%s'!\0A\00", align 1
@.str.9 = private unnamed_addr constant [21 x i8] c"Invalid resolution!\0A\00", align 1
@.str.10 = private unnamed_addr constant [20 x i8] c"Optimizing spectra \00", align 1
@1 = private unnamed_addr constant %struct.ident_t { i32 0, i32 2, i32 0, i32 22, ptr @0 }, align 8
@.str.12 = private unnamed_addr constant [3 x i8] c"wb\00", align 1
@.str.13 = private unnamed_addr constant [23 x i8] c"Could not create file!\00", align 1
@.str.14 = private unnamed_addr constant [5 x i8] c"SPEC\00", align 1
@.str.15 = private unnamed_addr constant [8 x i8] c" done.\0A\00", align 1
@.str.16 = private unnamed_addr constant [5 x i8] c"sRGB\00", align 1
@.str.17 = private unnamed_addr constant [5 x i8] c"eRGB\00", align 1
@.str.18 = private unnamed_addr constant [4 x i8] c"XYZ\00", align 1
@.str.19 = private unnamed_addr constant [12 x i8] c"ProPhotoRGB\00", align 1
@.str.20 = private unnamed_addr constant [11 x i8] c"ACES2065_1\00", align 1
@.str.21 = private unnamed_addr constant [8 x i8] c"REC2020\00", align 1

; Function Attrs: mustprogress nounwind uwtable
define hidden noundef double @_Z10smoothstepd(double noundef %0) #0 {
  %2 = alloca double, align 8
  store double %0, ptr %2, align 8
  %3 = load double, ptr %2, align 8
  %4 = load double, ptr %2, align 8
  %5 = fmul contract double %3, %4
  %6 = load double, ptr %2, align 8
  %7 = fmul contract double 2.000000e+00, %6
  %8 = fsub contract double 3.000000e+00, %7
  %9 = fmul contract double %5, %8
  ret double %9
}

; Function Attrs: mustprogress nounwind uwtable
define internal noundef i32 @_ZL11parse_gamutPKc(ptr noundef %0) #0 {
  %2 = alloca i32, align 4
  %3 = alloca ptr, align 8
  store ptr %0, ptr %3, align 8
  %4 = load ptr, ptr %3, align 8
  %5 = call i32 @strcasecmp(ptr noundef %4, ptr noundef @.str.16) #19
  %6 = icmp ne i32 %5, 0
  br i1 %6, label %8, label %7

7:                                                ; preds = %1
  store i32 0, ptr %2, align 4
  br label %34

8:                                                ; preds = %1
  %9 = load ptr, ptr %3, align 8
  %10 = call i32 @strcasecmp(ptr noundef %9, ptr noundef @.str.17) #19
  %11 = icmp ne i32 %10, 0
  br i1 %11, label %13, label %12

12:                                               ; preds = %8
  store i32 4, ptr %2, align 4
  br label %34

13:                                               ; preds = %8
  %14 = load ptr, ptr %3, align 8
  %15 = call i32 @strcasecmp(ptr noundef %14, ptr noundef @.str.18) #19
  %16 = icmp ne i32 %15, 0
  br i1 %16, label %18, label %17

17:                                               ; preds = %13
  store i32 5, ptr %2, align 4
  br label %34

18:                                               ; preds = %13
  %19 = load ptr, ptr %3, align 8
  %20 = call i32 @strcasecmp(ptr noundef %19, ptr noundef @.str.19) #19
  %21 = icmp ne i32 %20, 0
  br i1 %21, label %23, label %22

22:                                               ; preds = %18
  store i32 1, ptr %2, align 4
  br label %34

23:                                               ; preds = %18
  %24 = load ptr, ptr %3, align 8
  %25 = call i32 @strcasecmp(ptr noundef %24, ptr noundef @.str.20) #19
  %26 = icmp ne i32 %25, 0
  br i1 %26, label %28, label %27

27:                                               ; preds = %23
  store i32 2, ptr %2, align 4
  br label %34

28:                                               ; preds = %23
  %29 = load ptr, ptr %3, align 8
  %30 = call i32 @strcasecmp(ptr noundef %29, ptr noundef @.str.21) #19
  %31 = icmp ne i32 %30, 0
  br i1 %31, label %33, label %32

32:                                               ; preds = %28
  store i32 3, ptr %2, align 4
  br label %34

33:                                               ; preds = %28
  store i32 6, ptr %2, align 4
  br label %34

34:                                               ; preds = %33, %32, %27, %22, %17, %12, %7
  %35 = load i32, ptr %2, align 4
  ret i32 %35
}

; Function Attrs: mustprogress norecurse uwtable
define hidden noundef i32 @main(i32 noundef %0, ptr noundef %1) #9 personality ptr @__gxx_personality_v0 {
  %3 = alloca i32, align 4
  %4 = alloca i32, align 4
  %5 = alloca ptr, align 8
  %6 = alloca i32, align 4
  %7 = alloca i32, align 4
  %8 = alloca ptr, align 8
  %9 = alloca i32, align 4
  %10 = alloca i64, align 8
  %11 = alloca ptr, align 8
  %12 = alloca ptr, align 8
  %13 = alloca ptr, align 8
  %14 = alloca i32, align 4
  %15 = alloca i32, align 4
  store i32 0, ptr %3, align 4
  store i32 %0, ptr %4, align 4
  store ptr %1, ptr %5, align 8
  %16 = load i32, ptr %4, align 4
  %17 = icmp slt i32 %16, 3
  br i1 %17, label %18, label %20

18:                                               ; preds = %2
  %19 = call i32 (ptr, ...) @printf(ptr noundef @.str.7)
  call void @exit(i32 noundef -1) #18
  unreachable

20:                                               ; preds = %2
  store i32 0, ptr %6, align 4
  %21 = load i32, ptr %4, align 4
  %22 = icmp sgt i32 %21, 3
  br i1 %22, label %23, label %28

23:                                               ; preds = %20
  %24 = load ptr, ptr %5, align 8
  %25 = getelementptr inbounds ptr, ptr %24, i64 3
  %26 = load ptr, ptr %25, align 8
  %27 = call noundef i32 @_ZL11parse_gamutPKc(ptr noundef %26)
  store i32 %27, ptr %6, align 4
  br label %28

28:                                               ; preds = %23, %20
  %29 = load i32, ptr %6, align 4
  %30 = icmp eq i32 %29, 6
  br i1 %30, label %31, label %37

31:                                               ; preds = %28
  %32 = load ptr, ptr @stderr, align 8
  %33 = load ptr, ptr %5, align 8
  %34 = getelementptr inbounds ptr, ptr %33, i64 3
  %35 = load ptr, ptr %34, align 8
  %36 = call i32 (ptr, ptr, ...) @fprintf(ptr noundef %32, ptr noundef @.str.8, ptr noundef %35) #14
  call void @exit(i32 noundef -1) #18
  unreachable

37:                                               ; preds = %28
  %38 = load i32, ptr %6, align 4
  call void @_Z11init_tables5Gamut(i32 noundef %38)
  %39 = load ptr, ptr %5, align 8
  %40 = getelementptr inbounds ptr, ptr %39, i64 1
  %41 = load ptr, ptr %40, align 8
  %42 = call i32 @atoi(ptr noundef %41) #19
  store i32 %42, ptr %7, align 4
  %43 = load i32, ptr %7, align 4
  %44 = icmp eq i32 %43, 0
  br i1 %44, label %45, label %47

45:                                               ; preds = %37
  %46 = call i32 (ptr, ...) @printf(ptr noundef @.str.9)
  call void @exit(i32 noundef -1) #18
  unreachable

47:                                               ; preds = %37
  %48 = call i32 (ptr, ...) @printf(ptr noundef @.str.10)
  %49 = load i32, ptr %7, align 4
  %50 = sext i32 %49 to i64
  %51 = call { i64, i1 } @llvm.umul.with.overflow.i64(i64 %50, i64 4)
  %52 = extractvalue { i64, i1 } %51, 1
  %53 = extractvalue { i64, i1 } %51, 0
  %54 = select i1 %52, i64 -1, i64 %53
  %55 = call noalias noundef nonnull ptr @_Znam(i64 noundef %54) #20
  store ptr %55, ptr %8, align 8
  store i32 0, ptr %9, align 4
  br label %56

56:                                               ; preds = %74, %47
  %57 = load i32, ptr %9, align 4
  %58 = load i32, ptr %7, align 4
  %59 = icmp slt i32 %57, %58
  br i1 %59, label %60, label %77

60:                                               ; preds = %56
  %61 = load i32, ptr %9, align 4
  %62 = sitofp i32 %61 to double
  %63 = load i32, ptr %7, align 4
  %64 = sub nsw i32 %63, 1
  %65 = sitofp i32 %64 to double
  %66 = fdiv contract double %62, %65
  %67 = call contract noundef double @_Z10smoothstepd(double noundef %66)
  %68 = call contract noundef double @_Z10smoothstepd(double noundef %67)
  %69 = fptrunc double %68 to float
  %70 = load ptr, ptr %8, align 8
  %71 = load i32, ptr %9, align 4
  %72 = sext i32 %71 to i64
  %73 = getelementptr inbounds float, ptr %70, i64 %72
  store float %69, ptr %73, align 4
  br label %74

74:                                               ; preds = %60
  %75 = load i32, ptr %9, align 4
  %76 = add nsw i32 %75, 1
  store i32 %76, ptr %9, align 4
  br label %56, !llvm.loop !30

77:                                               ; preds = %56
  %78 = load i32, ptr %7, align 4
  %79 = mul nsw i32 9, %78
  %80 = load i32, ptr %7, align 4
  %81 = mul nsw i32 %79, %80
  %82 = load i32, ptr %7, align 4
  %83 = mul nsw i32 %81, %82
  %84 = sext i32 %83 to i64
  store i64 %84, ptr %10, align 8
  %85 = load i64, ptr %10, align 8
  %86 = call { i64, i1 } @llvm.umul.with.overflow.i64(i64 %85, i64 4)
  %87 = extractvalue { i64, i1 } %86, 1
  %88 = extractvalue { i64, i1 } %86, 0
  %89 = select i1 %87, i64 -1, i64 %88
  %90 = call noalias noundef nonnull ptr @_Znam(i64 noundef %89) #20
  store ptr %90, ptr %11, align 8
  call void (ptr, i32, ptr, ...) @__kmpc_fork_call(ptr @1, i32 3, ptr @main.omp_outlined, ptr %7, ptr %8, ptr %11)
  %91 = load ptr, ptr %5, align 8
  %92 = getelementptr inbounds ptr, ptr %91, i64 2
  %93 = load ptr, ptr %92, align 8
  %94 = call noalias ptr @fopen(ptr noundef %93, ptr noundef @.str.12)
  store ptr %94, ptr %12, align 8
  %95 = load ptr, ptr %12, align 8
  %96 = icmp eq ptr %95, null
  br i1 %96, label %97, label %104

97:                                               ; preds = %77
  %98 = call ptr @__cxa_allocate_exception(i64 16) #14
  invoke void @_ZNSt13runtime_errorC1EPKc(ptr noundef nonnull align 8 dereferenceable(16) %98, ptr noundef @.str.13)
          to label %99 unwind label %100

99:                                               ; preds = %97
  call void @__cxa_throw(ptr %98, ptr @_ZTISt13runtime_error, ptr @_ZNSt13runtime_errorD1Ev) #17
  unreachable

100:                                              ; preds = %97
  %101 = landingpad { ptr, i32 }
          cleanup
  %102 = extractvalue { ptr, i32 } %101, 0
  store ptr %102, ptr %13, align 8
  %103 = extractvalue { ptr, i32 } %101, 1
  store i32 %103, ptr %14, align 4
  call void @__cxa_free_exception(ptr %98) #14
  br label %133

104:                                              ; preds = %77
  %105 = load ptr, ptr %12, align 8
  %106 = call i64 @fwrite(ptr noundef @.str.14, i64 noundef 4, i64 noundef 1, ptr noundef %105)
  %107 = load i32, ptr %7, align 4
  store i32 %107, ptr %15, align 4
  %108 = load ptr, ptr %12, align 8
  %109 = call i64 @fwrite(ptr noundef %15, i64 noundef 4, i64 noundef 1, ptr noundef %108)
  %110 = load ptr, ptr %8, align 8
  %111 = load i32, ptr %7, align 4
  %112 = sext i32 %111 to i64
  %113 = mul i64 %112, 4
  %114 = load ptr, ptr %12, align 8
  %115 = call i64 @fwrite(ptr noundef %110, i64 noundef %113, i64 noundef 1, ptr noundef %114)
  %116 = load ptr, ptr %11, align 8
  %117 = load i64, ptr %10, align 8
  %118 = mul i64 4, %117
  %119 = load ptr, ptr %12, align 8
  %120 = call i64 @fwrite(ptr noundef %116, i64 noundef %118, i64 noundef 1, ptr noundef %119)
  %121 = load ptr, ptr %11, align 8
  %122 = icmp eq ptr %121, null
  br i1 %122, label %124, label %123

123:                                              ; preds = %104
  call void @_ZdaPv(ptr noundef %121) #21
  br label %124

124:                                              ; preds = %123, %104
  %125 = load ptr, ptr %8, align 8
  %126 = icmp eq ptr %125, null
  br i1 %126, label %128, label %127

127:                                              ; preds = %124
  call void @_ZdaPv(ptr noundef %125) #21
  br label %128

128:                                              ; preds = %127, %124
  %129 = load ptr, ptr %12, align 8
  %130 = call i32 @fclose(ptr noundef %129)
  %131 = call i32 (ptr, ...) @printf(ptr noundef @.str.15)
  %132 = load i32, ptr %3, align 4
  ret i32 %132

133:                                              ; preds = %100
  %134 = load ptr, ptr %13, align 8
  %135 = load i32, ptr %14, align 4
  %136 = insertvalue { ptr, i32 } poison, ptr %134, 0
  %137 = insertvalue { ptr, i32 } %136, i32 %135, 1
  resume { ptr, i32 } %137
}