; Function Attrs: mustprogress norecurse uwtable
define hidden noundef i32 @main(i32 noundef %0, ptr nocapture noundef readonly %1) local_unnamed_addr #14 personality ptr @__gxx_personality_v0 {
  %3 = alloca i32, align 4
  %4 = alloca ptr, align 8
  %5 = alloca ptr, align 8
  %6 = alloca i32, align 4
  %7 = icmp slt i32 %0, 3
  br i1 %7, label %8, label %9

8:                                                ; preds = %2
  %puts29 = tail call i32 @puts(ptr nonnull dereferenceable(1) @str.2)
  tail call void @exit(i32 noundef -1) #27
  unreachable

9:                                                ; preds = %2
  %.not = icmp eq i32 %0, 3
  br i1 %.not, label %select.unfold, label %10

10:                                               ; preds = %9
  %11 = getelementptr inbounds i8, ptr %1, i64 24
  %12 = load ptr, ptr %11, align 8
  %13 = tail call i32 @strcasecmp(ptr noundef %12, ptr noundef nonnull @.str.16) #28
  %.not.i = icmp eq i32 %13, 0
  br i1 %.not.i, label %select.unfold, label %14

14:                                               ; preds = %10
  %15 = tail call i32 @strcasecmp(ptr noundef %12, ptr noundef nonnull @.str.17) #28
  %.not6.i = icmp eq i32 %15, 0
  br i1 %.not6.i, label %select.unfold, label %16

16:                                               ; preds = %14
  %17 = tail call i32 @strcasecmp(ptr noundef %12, ptr noundef nonnull @.str.18) #28
  %.not7.i = icmp eq i32 %17, 0
  br i1 %.not7.i, label %select.unfold, label %18

18:                                               ; preds = %16
  %19 = tail call i32 @strcasecmp(ptr noundef %12, ptr noundef nonnull @.str.19) #28
  %.not8.i = icmp eq i32 %19, 0
  br i1 %.not8.i, label %select.unfold, label %20

20:                                               ; preds = %18
  %21 = tail call i32 @strcasecmp(ptr noundef %12, ptr noundef nonnull @.str.20) #28
  %.not9.i = icmp eq i32 %21, 0
  br i1 %.not9.i, label %select.unfold, label %22

22:                                               ; preds = %20
  %23 = tail call i32 @strcasecmp(ptr noundef %12, ptr noundef nonnull @.str.21) #28
  %.not10.i = icmp eq i32 %23, 0
  br i1 %.not10.i, label %select.unfold, label %_ZL11parse_gamutPKc.exit

_ZL11parse_gamutPKc.exit:                         ; preds = %22
  %24 = load ptr, ptr @stderr, align 8
  %25 = tail call i32 (ptr, ptr, ...) @fprintf(ptr noundef %24, ptr noundef nonnull @.str.8, ptr noundef %12) #29
  tail call void @exit(i32 noundef -1) #27
  unreachable

select.unfold:                                    ; preds = %22, %9, %10, %14, %16, %18, %20
  %.0.ph = phi i32 [ 2, %20 ], [ 1, %18 ], [ 5, %16 ], [ 4, %14 ], [ 0, %10 ], [ 0, %9 ], [ 3, %22 ]
  tail call void @_Z11init_tables5Gamut(i32 noundef %.0.ph)
  %26 = getelementptr inbounds i8, ptr %1, i64 8
  %27 = load ptr, ptr %26, align 8
  %28 = tail call i32 @atoi(ptr nocapture noundef %27) #28
  store i32 %28, ptr %3, align 4
  %29 = icmp eq i32 %28, 0
  br i1 %29, label %30, label %31

30:                                               ; preds = %select.unfold
  %puts28 = tail call i32 @puts(ptr nonnull dereferenceable(1) @str.1)
  tail call void @exit(i32 noundef -1) #27
  unreachable

31:                                               ; preds = %select.unfold
  %32 = tail call i32 (ptr, ...) @printf(ptr noundef nonnull dereferenceable(1) @.str.10)
  %33 = sext i32 %28 to i64
  %34 = icmp slt i32 %28, 0
  %35 = shl nsw i64 %33, 2
  %36 = select i1 %34, i64 -1, i64 %35
  %37 = tail call noalias noundef nonnull ptr @_Znam(i64 noundef %36) #30
  store ptr %37, ptr %4, align 8
  %38 = icmp sgt i32 %28, 0
  br i1 %38, label %.lr.ph.preheader, label %._crit_edge

.lr.ph.preheader:                                 ; preds = %31
  %39 = add nsw i32 %28, -1
  %40 = sitofp i32 %39 to double
  br label %.lr.ph

.lr.ph:                                           ; preds = %.lr.ph.preheader, %.lr.ph
  %indvars.iv = phi i64 [ 0, %.lr.ph.preheader ], [ %indvars.iv.next, %.lr.ph ]
  %41 = trunc i64 %indvars.iv to i32
  %42 = sitofp i32 %41 to double
  %43 = fdiv contract double %42, %40
  %44 = fmul contract double %43, %43
  %45 = fmul contract double %43, 2.000000e+00
  %46 = fsub contract double 3.000000e+00, %45
  %47 = fmul contract double %44, %46
  %48 = fmul contract double %47, %47
  %49 = fmul contract double %47, 2.000000e+00
  %50 = fsub contract double 3.000000e+00, %49
  %51 = fmul contract double %48, %50
  %52 = fptrunc double %51 to float
  %53 = getelementptr inbounds float, ptr %37, i64 %indvars.iv
  store float %52, ptr %53, align 4
  %indvars.iv.next = add nuw nsw i64 %indvars.iv, 1
  %54 = icmp slt i64 %indvars.iv.next, %33
  br i1 %54, label %.lr.ph, label %._crit_edge, !llvm.loop !30

._crit_edge:                                      ; preds = %.lr.ph, %31
  %55 = mul nsw i32 %28, 9
  %56 = mul nsw i32 %55, %28
  %57 = mul nsw i32 %56, %28
  %58 = sext i32 %57 to i64
  %59 = icmp slt i32 %57, 0
  %60 = shl nsw i64 %58, 2
  %61 = select i1 %59, i64 -1, i64 %60
  %62 = tail call noalias noundef nonnull ptr @_Znam(i64 noundef %61) #30
  store ptr %62, ptr %5, align 8
  call void (ptr, i32, ptr, ...) @__kmpc_fork_call(ptr nonnull @1, i32 3, ptr nonnull @main.omp_outlined, ptr nonnull %3, ptr nonnull %4, ptr nonnull %5)
  %63 = getelementptr inbounds i8, ptr %1, i64 16
  %64 = load ptr, ptr %63, align 8
  %65 = call noalias ptr @fopen(ptr noundef %64, ptr noundef nonnull @.str.12)
  %66 = icmp eq ptr %65, null
  br i1 %66, label %67, label %72

67:                                               ; preds = %._crit_edge
  %68 = call ptr @__cxa_allocate_exception(i64 16) #20
  invoke void @_ZNSt13runtime_errorC1EPKc(ptr noundef nonnull align 8 dereferenceable(16) %68, ptr noundef nonnull @.str.13)
          to label %69 unwind label %70

69:                                               ; preds = %67
  call void @__cxa_throw(ptr nonnull %68, ptr nonnull @_ZTISt13runtime_error, ptr nonnull @_ZNSt13runtime_errorD1Ev) #26
  unreachable

70:                                               ; preds = %67
  %71 = landingpad { ptr, i32 }
          cleanup
  call void @__cxa_free_exception(ptr %68) #20
  resume { ptr, i32 } %71

72:                                               ; preds = %._crit_edge
  %73 = call i64 @fwrite(ptr noundef nonnull @.str.14, i64 noundef 4, i64 noundef 1, ptr noundef nonnull %65)
  %74 = load i32, ptr %3, align 4
  store i32 %74, ptr %6, align 4
  %75 = call i64 @fwrite(ptr noundef nonnull %6, i64 noundef 4, i64 noundef 1, ptr noundef nonnull %65)
  %76 = load ptr, ptr %4, align 8
  %77 = load i32, ptr %3, align 4
  %78 = sext i32 %77 to i64
  %79 = shl nsw i64 %78, 2
  %80 = call i64 @fwrite(ptr noundef %76, i64 noundef %79, i64 noundef 1, ptr noundef nonnull %65)
  %81 = load ptr, ptr %5, align 8
  %82 = call i64 @fwrite(ptr noundef %81, i64 noundef %60, i64 noundef 1, ptr noundef nonnull %65)
  %83 = load ptr, ptr %5, align 8
  %84 = icmp eq ptr %83, null
  br i1 %84, label %86, label %85

85:                                               ; preds = %72
  call void @_ZdaPv(ptr noundef nonnull %83) #31
  br label %86

86:                                               ; preds = %85, %72
  %87 = load ptr, ptr %4, align 8
  %88 = icmp eq ptr %87, null
  br i1 %88, label %90, label %89

89:                                               ; preds = %86
  call void @_ZdaPv(ptr noundef nonnull %87) #31
  br label %90

90:                                               ; preds = %89, %86
  %91 = call i32 @fclose(ptr noundef nonnull %65)
  %puts = call i32 @puts(ptr nonnull dereferenceable(1) @str)
  ret i32 0
}